Certificate:
    Data:
        Version: 3 (0x2)
        Serial Number: 4096 (0x1000)
    Signature Algorithm: sha1WithRSAEncryption
        Issuer: C=us, ST=ny, L=syracuse, O=syruniv, OU=cis, CN=PKILabServer.com/emailAddress=aapatil@syr.edu
        Validity
            Not Before: Apr 17 19:39:09 2016 GMT
            Not After : Apr 17 19:39:09 2017 GMT
        Subject: C=us, ST=ny, O=syruniv, OU=cis, CN=PKILabServer.com/emailAddress=aapatil@syr.edu
        Subject Public Key Info:
            Public Key Algorithm: rsaEncryption
                Public-Key: (1024 bit)
                Modulus:
                    00:bb:0a:d2:1b:0c:9c:29:b6:db:2d:23:67:a0:1f:
                    7c:0f:75:82:84:9e:25:7c:a0:04:1a:bc:f7:d3:f4:
                    0d:4b:9a:69:f0:3b:66:0d:85:f0:ba:73:7f:3c:03:
                    bf:aa:9c:69:9d:06:9d:b3:10:30:d6:21:b3:5c:be:
                    20:6d:52:69:00:56:90:d5:fc:a3:c7:9d:e2:70:fa:
                    6e:67:db:4b:57:ca:59:dd:4d:b0:36:b4:8c:63:ad:
                    7d:55:1e:64:53:7f:09:03:66:57:ea:1a:f9:0d:ae:
                    33:8e:ae:6e:14:42:ca:72:d4:55:74:4e:43:e0:cf:
                    c4:42:d5:49:94:9d:0f:51:31
                Exponent: 65537 (0x10001)
        X509v3 extensions:
            X509v3 Basic Constraints: 
                CA:FALSE
            Netscape Comment: 
                OpenSSL Generated Certificate
            X509v3 Subject Key Identifier: 
                FD:46:37:A9:FC:24:17:DE:52:16:39:DE:16:0F:EC:62:FD:D9:71:97
            X509v3 Authority Key Identifier: 
                keyid:00:DE:70:DC:4C:1A:81:F1:2D:B7:34:65:22:10:C5:72:AC:3E:2F:37

    Signature Algorithm: sha1WithRSAEncryption
         1d:cb:9e:03:b4:35:3d:cc:b3:95:31:87:fe:6b:50:8e:49:37:
         bf:81:ca:c4:6f:13:f4:f8:55:1e:62:08:00:19:3e:0d:37:9f:
         5c:9e:54:3b:fc:4a:05:05:00:f3:b1:ca:17:3d:48:43:ec:14:
         a6:25:80:92:1b:ff:a7:f3:c8:d4:56:7f:02:15:d8:6d:3e:c1:
         72:0d:a1:f4:15:e0:c5:18:8a:b1:41:75:75:58:67:90:f6:5d:
         2b:8e:c7:77:6f:40:7a:e9:9b:01:05:e3:eb:b9:28:93:ad:97:
         51:db:fa:95:60:27:fc:36:66:31:76:a1:ec:7b:82:5d:f9:72:
         09:76
-----BEGIN CERTIFICATE-----
MIIC8DCCAlmgAwIBAgICEAAwDQYJKoZIhvcNAQEFBQAwgYgxCzAJBgNVBAYTAnVz
MQswCQYDVQQIDAJueTERMA8GA1UEBwwIc3lyYWN1c2UxEDAOBgNVBAoMB3N5cnVu
aXYxDDAKBgNVBAsMA2NpczEZMBcGA1UEAwwQUEtJTGFiU2VydmVyLmNvbTEeMBwG
CSqGSIb3DQEJARYPYWFwYXRpbEBzeXIuZWR1MB4XDTE2MDQxNzE5MzkwOVoXDTE3
MDQxNzE5MzkwOVowdTELMAkGA1UEBhMCdXMxCzAJBgNVBAgMAm55MRAwDgYDVQQK
DAdzeXJ1bml2MQwwCgYDVQQLDANjaXMxGTAXBgNVBAMMEFBLSUxhYlNlcnZlci5j
b20xHjAcBgkqhkiG9w0BCQEWD2FhcGF0aWxAc3lyLmVkdTCBnzANBgkqhkiG9w0B
AQEFAAOBjQAwgYkCgYEAuwrSGwycKbbbLSNnoB98D3WChJ4lfKAEGrz30/QNS5pp
8DtmDYXwunN/PAO/qpxpnQadsxAw1iGzXL4gbVJpAFaQ1fyjx53icPpuZ9tLV8pZ
3U2wNrSMY619VR5kU38JA2ZX6hr5Da4zjq5uFELKctRVdE5D4M/EQtVJlJ0PUTEC
AwEAAaN7MHkwCQYDVR0TBAIwADAsBglghkgBhvhCAQ0EHxYdT3BlblNTTCBHZW5l
cmF0ZWQgQ2VydGlmaWNhdGUwHQYDVR0OBBYEFP1GN6n8JBfeUhY53hYP7GL92XGX
MB8GA1UdIwQYMBaAFADecNxMGoHxLbc0ZSIQxXKsPi83MA0GCSqGSIb3DQEBBQUA
A4GBAB3LngO0NT3Ms5Uxh/5rUI5JN7+BysRvE/T4VR5iCAAZPg03n1yeVDv8SgUF
APOxyhc9SEPsFKYlgJIb/6fzyNRWfwIV2G0+wXINofQV4MUYirFBdXVYZ5D2XSuO
x3dvQHrpmwEF4+u5KJOtl1Hb+pVgJ/w2ZjF2oex7gl35cgl2
-----END CERTIFICATE-----
